; ModuleID = 'source-C-CXX/44/2788.c'
source_filename = "source-C-CXX/44/2788.c"
target datalayout = "e-m:e-p270:32:32-p271:32:32-p272:64:64-i64:64-f80:128-n8:16:32:64-S128"
target triple = "x86_64-pc-linux-gnu"

@.str = private unnamed_addr constant [6 x i8] c"%s %s\00", align 1
@.str.1 = private unnamed_addr constant [3 x i8] c"%d\00", align 1

; Function Attrs: nofree nounwind sspstrong uwtable
define dso_local i32 @main() local_unnamed_addr #0 {
  %1 = alloca [100 x i8], align 16
  %2 = alloca [100 x i8], align 16
  %3 = getelementptr inbounds [100 x i8], [100 x i8]* %1, i64 0, i64 0
  call void @llvm.lifetime.start.p0i8(i64 100, i8* nonnull %3) #4
  %4 = getelementptr inbounds [100 x i8], [100 x i8]* %2, i64 0, i64 0
  call void @llvm.lifetime.start.p0i8(i64 100, i8* nonnull %4) #4
  %5 = call i32 (i8*, ...) @__isoc99_scanf(i8* getelementptr inbounds ([6 x i8], [6 x i8]* @.str, i64 0, i64 0), [100 x i8]* nonnull %1, [100 x i8]* nonnull %2)
  %6 = call i64 @strlen(i8* noundef nonnull %3) #5
  %7 = call i64 @strlen(i8* noundef nonnull %4) #5
  %8 = trunc i64 %7 to i32
  %9 = load i8, i8* %3, align 16
  %10 = icmp sgt i32 %8, 0
  br i1 %10, label %11, label %48

11:                                               ; preds = %0
  %12 = trunc i64 %6 to i32
  %13 = icmp sgt i32 %12, 1
  %14 = and i64 %7, 4294967295
  br i1 %13, label %15, label %36

15:                                               ; preds = %11
  %16 = and i64 %6, 4294967295
  br label %17

17:                                               ; preds = %15, %33
  %18 = phi i64 [ 0, %15 ], [ %34, %33 ]
  %19 = getelementptr inbounds [100 x i8], [100 x i8]* %2, i64 0, i64 %18
  %20 = load i8, i8* %19, align 1, !tbaa !5
  %21 = icmp eq i8 %9, %20
  br i1 %21, label %24, label %33

22:                                               ; preds = %24
  %23 = icmp eq i64 %32, %16
  br i1 %23, label %41, label %24, !llvm.loop !8

24:                                               ; preds = %17, %22
  %25 = phi i64 [ %32, %22 ], [ 1, %17 ]
  %26 = getelementptr inbounds [100 x i8], [100 x i8]* %1, i64 0, i64 %25
  %27 = load i8, i8* %26, align 1, !tbaa !5
  %28 = add nuw nsw i64 %25, %18
  %29 = getelementptr inbounds [100 x i8], [100 x i8]* %2, i64 0, i64 %28
  %30 = load i8, i8* %29, align 1, !tbaa !5
  %31 = icmp eq i8 %27, %30
  %32 = add nuw nsw i64 %25, 1
  br i1 %31, label %22, label %33

33:                                               ; preds = %24, %17
  %34 = add nuw nsw i64 %18, 1
  %35 = icmp eq i64 %34, %14
  br i1 %35, label %48, label %17, !llvm.loop !10

36:                                               ; preds = %11, %45
  %37 = phi i64 [ %46, %45 ], [ 0, %11 ]
  %38 = getelementptr inbounds [100 x i8], [100 x i8]* %2, i64 0, i64 %37
  %39 = load i8, i8* %38, align 1, !tbaa !5
  %40 = icmp eq i8 %9, %39
  br i1 %40, label %41, label %45

41:                                               ; preds = %36, %22
  %42 = phi i64 [ %18, %22 ], [ %37, %36 ]
  %43 = trunc i64 %42 to i32
  %44 = call i32 (i8*, ...) @printf(i8* nonnull dereferenceable(1) getelementptr inbounds ([3 x i8], [3 x i8]* @.str.1, i64 0, i64 0), i32 %43)
  br label %48

45:                                               ; preds = %36
  %46 = add nuw nsw i64 %37, 1
  %47 = icmp eq i64 %46, %14
  br i1 %47, label %48, label %36, !llvm.loop !10

48:                                               ; preds = %45, %33, %0, %41
  call void @llvm.lifetime.end.p0i8(i64 100, i8* nonnull %4) #4
  call void @llvm.lifetime.end.p0i8(i64 100, i8* nonnull %3) #4
  ret i32 0
}

; Function Attrs: argmemonly mustprogress nofree nosync nounwind willreturn
declare void @llvm.lifetime.start.p0i8(i64 immarg, i8* nocapture) #1

; Function Attrs: nofree nounwind
declare noundef i32 @__isoc99_scanf(i8* nocapture noundef readonly, ...) local_unnamed_addr #2

; Function Attrs: argmemonly mustprogress nofree nounwind readonly willreturn
declare i64 @strlen(i8* nocapture) local_unnamed_addr #3

; Function Attrs: nofree nounwind
declare noundef i32 @printf(i8* nocapture noundef readonly, ...) local_unnamed_addr #2

; Function Attrs: argmemonly mustprogress nofree nosync nounwind willreturn
declare void @llvm.lifetime.end.p0i8(i64 immarg, i8* nocapture) #1


!llvm.module.flags = !{!0, !1, !2, !3}
!llvm.ident = !{!4}

!0 = !{i32 1, !"wchar_size", i32 4}
!1 = !{i32 7, !"PIC Level", i32 2}
!2 = !{i32 7, !"PIE Level", i32 2}
!3 = !{i32 7, !"uwtable", i32 1}
!4 = !{!"clang version 13.0.0"}
!5 = !{!6, !6, i64 0}
!6 = !{!"omnipotent char", !7, i64 0}
!7 = !{!"Simple C/C++ TBAA"}
!8 = distinct !{!8, !9}
!9 = !{!"llvm.loop.mustprogress"}
!10 = distinct !{!10, !9}
